; Function Attrs: nounwind uwtable
define void @Fraig_NodeVecPushOrder(ptr noundef captures(none) %0, ptr noundef %1) local_unnamed_addr #9 {
  %3 = getelementptr inbounds nuw i8, ptr %0, i64 4
  %4 = load i32, ptr %3, align 4, !tbaa !3
  %5 = load i32, ptr %0, align 8, !tbaa !10
  %6 = icmp eq i32 %4, %5
  br i1 %6, label %7, label %.Fraig_NodeVecGrow.exit11_crit_edge.i

.Fraig_NodeVecGrow.exit11_crit_edge.i:            ; preds = %2
  %.phi.trans.insert.i = getelementptr inbounds nuw i8, ptr %0, i64 8
  %.pre.i = load ptr, ptr %.phi.trans.insert.i, align 8, !tbaa !11
  br label %Fraig_NodeVecPush.exit

7:                                                ; preds = %2
  %8 = icmp slt i32 %4, 16
  br i1 %8, label %9, label %17

9:                                                ; preds = %7
  %10 = getelementptr inbounds nuw i8, ptr %0, i64 8
  %11 = load ptr, ptr %10, align 8, !tbaa !11
  %.not9.i.i = icmp eq ptr %11, null
  br i1 %.not9.i.i, label %14, label %12

12:                                               ; preds = %9
  %13 = tail call dereferenceable_or_null(128) ptr @realloc(ptr noundef nonnull %11, i64 noundef 128) #19
  br label %Fraig_NodeVecGrow.exit.i

14:                                               ; preds = %9
  %15 = tail call noalias dereferenceable_or_null(128) ptr @malloc(i64 noundef 128) #17
  br label %Fraig_NodeVecGrow.exit.i

Fraig_NodeVecGrow.exit.i:                         ; preds = %14, %12
  %16 = phi ptr [ %13, %12 ], [ %15, %14 ]
  store ptr %16, ptr %10, align 8, !tbaa !11
  store i32 16, ptr %0, align 8, !tbaa !10
  br label %Fraig_NodeVecPush.exit

17:                                               ; preds = %7
  %18 = shl nuw nsw i32 %4, 1
  %19 = getelementptr inbounds nuw i8, ptr %0, i64 8
  %20 = load ptr, ptr %19, align 8, !tbaa !11
  %.not9.i10.i = icmp eq ptr %20, null
  %21 = zext nneg i32 %18 to i64
  %22 = shl nuw nsw i64 %21, 3
  br i1 %.not9.i10.i, label %25, label %23

23:                                               ; preds = %17
  %24 = tail call ptr @realloc(ptr noundef nonnull %20, i64 noundef %22) #19
  br label %27

25:                                               ; preds = %17
  %26 = tail call noalias ptr @malloc(i64 noundef %22) #17
  br label %27

27:                                               ; preds = %25, %23
  %28 = phi ptr [ %24, %23 ], [ %26, %25 ]
  store ptr %28, ptr %19, align 8, !tbaa !11
  store i32 %18, ptr %0, align 8, !tbaa !10
  br label %Fraig_NodeVecPush.exit

Fraig_NodeVecPush.exit:                           ; preds = %.Fraig_NodeVecGrow.exit11_crit_edge.i, %Fraig_NodeVecGrow.exit.i, %27
  %29 = phi ptr [ %.pre.i, %.Fraig_NodeVecGrow.exit11_crit_edge.i ], [ %28, %27 ], [ %16, %Fraig_NodeVecGrow.exit.i ]
  %30 = load i32, ptr %3, align 4, !tbaa !3
  %31 = add nsw i32 %30, 1
  store i32 %31, ptr %3, align 4, !tbaa !3
  %32 = sext i32 %30 to i64
  %33 = getelementptr inbounds ptr, ptr %29, i64 %32
  store ptr %1, ptr %33, align 8, !tbaa !12
  %34 = icmp sgt i32 %30, 0
  br i1 %34, label %.lr.ph, label %._crit_edge

.lr.ph:                                           ; preds = %Fraig_NodeVecPush.exit
  %invariant.gep = getelementptr i8, ptr %29, i64 -16
  br label %35

35:                                               ; preds = %.lr.ph, %41
  %.019 = phi i32 [ %30, %.lr.ph ], [ %.0, %41 ]
  %.0.in18 = phi i32 [ %31, %.lr.ph ], [ %.019, %41 ]
  %36 = zext nneg i32 %.019 to i64
  %37 = getelementptr inbounds nuw ptr, ptr %29, i64 %36
  %38 = load ptr, ptr %37, align 8, !tbaa !12
  %39 = zext nneg i32 %.0.in18 to i64
  %gep = getelementptr ptr, ptr %invariant.gep, i64 %39
  %40 = load ptr, ptr %gep, align 8, !tbaa !12
  %.not = icmp ult ptr %38, %40
  br i1 %.not, label %41, label %._crit_edge

41:                                               ; preds = %35
  store ptr %40, ptr %37, align 8, !tbaa !12
  store ptr %38, ptr %gep, align 8, !tbaa !12
  %.0 = add nsw i32 %.019, -1
  %42 = icmp sgt i32 %.019, 1
  br i1 %42, label %35, label %._crit_edge, !llvm.loop !16

._crit_edge:                                      ; preds = %41, %35, %Fraig_NodeVecPush.exit
  ret void
}